(lp0
S'poi'
p1
aS'total_stock_value'
p2
aS'exercised_stock_options'
p3
aS'bonus'
p4
aS'salary'
p5
aS'controllable_gain'
p6
aS'deferred_income'
p7
aS'long_term_incentive'
p8
aS'total_payments'
p9
aS'restricted_stock'
p10
aS'shared_receipt_with_poi'
p11
aS'loan_advances'
p12
aS'expenses'
p13
aS'poi_pctg'
p14
aS'from_poi_to_this_person'
p15
aS'other'
p16
aS'from_this_person_to_poi'
p17
aS'director_fees'
p18
aS'to_messages'
p19
aS'restricted_stock_deferred'
p20
aS'deferral_payments'
p21
a.